target datalayout = "e-m:e-p270:32:32-p271:32:32-p272:64:64-i64:64-i128:128-f80:128-n8:16:32:64-S128"
target triple = "x86_64-pc-linux-gnu"

%struct.lxb_html_token_t = type { ptr, ptr, i64, i64, ptr, ptr, ptr, ptr, ptr, i64, i64, i32 }
%struct.lxb_dom_node = type { %struct.lxb_dom_event_target, i64, i64, i64, ptr, ptr, ptr, ptr, ptr, ptr, ptr, i32, i64 }
%struct.lxb_dom_event_target = type { ptr }
%struct.lxb_html_tree = type { ptr, ptr, ptr, ptr, ptr, ptr, ptr, %struct.lxb_html_tree_pending_table_t, ptr, i8, i8, i8, i8, i8, i8, ptr, ptr, ptr, i32, i64 }
%struct.lxb_html_tree_pending_table_t = type { ptr, i8 }
%struct.lexbor_array_t = type { ptr, i64, i64 }

; Function Attrs: nounwind uwtable
define internal ptr @lxb_html_tree_open_elements_pop(ptr noundef %0) #0 {
  %2 = alloca ptr, align 8
  store ptr %0, ptr %2, align 8
  %3 = load ptr, ptr %2, align 8
  %4 = getelementptr inbounds %struct.lxb_html_tree, ptr %3, i32 0, i32 4
  %5 = load ptr, ptr %4, align 8
  %6 = call ptr @lexbor_array_pop(ptr noundef %5)
  ret ptr %6
}

; Function Attrs: nounwind uwtable
define internal zeroext i1 @lxb_html_tree_insertion_mode_foreign_content_anything_else_closed(ptr noundef %0, ptr noundef %1) #0 {
  %3 = alloca i1, align 1
  %4 = alloca ptr, align 8
  %5 = alloca ptr, align 8
  %6 = alloca ptr, align 8
  %7 = alloca i64, align 8
  store ptr %0, ptr %4, align 8
  store ptr %1, ptr %5, align 8
  %8 = load ptr, ptr %4, align 8
  %9 = getelementptr inbounds %struct.lxb_html_tree, ptr %8, i32 0, i32 4
  %10 = load ptr, ptr %9, align 8
  %11 = getelementptr inbounds %struct.lexbor_array_t, ptr %10, i32 0, i32 2
  %12 = load i64, ptr %11, align 8
  %13 = icmp eq i64 %12, 0
  br i1 %13, label %14, label %21

14:                                               ; preds = %2
  %15 = load ptr, ptr %4, align 8
  %16 = getelementptr inbounds %struct.lxb_html_tree, ptr %15, i32 0, i32 15
  %17 = load ptr, ptr %16, align 8
  %18 = load ptr, ptr %4, align 8
  %19 = load ptr, ptr %5, align 8
  %20 = call zeroext i1 %17(ptr noundef %18, ptr noundef %19)
  store i1 %20, ptr %3, align 1
  br label %89

21:                                               ; preds = %2
  %22 = load ptr, ptr %4, align 8
  %23 = getelementptr inbounds %struct.lxb_html_tree, ptr %22, i32 0, i32 4
  %24 = load ptr, ptr %23, align 8
  %25 = getelementptr inbounds %struct.lexbor_array_t, ptr %24, i32 0, i32 0
  %26 = load ptr, ptr %25, align 8
  store ptr %26, ptr %6, align 8
  %27 = load ptr, ptr %4, align 8
  %28 = getelementptr inbounds %struct.lxb_html_tree, ptr %27, i32 0, i32 4
  %29 = load ptr, ptr %28, align 8
  %30 = getelementptr inbounds %struct.lexbor_array_t, ptr %29, i32 0, i32 2
  %31 = load i64, ptr %30, align 8
  %32 = sub i64 %31, 1
  store i64 %32, ptr %7, align 8
  %33 = load i64, ptr %7, align 8
  %34 = icmp ugt i64 %33, 0
  br i1 %34, label %35, label %49

35:                                               ; preds = %21
  %36 = load ptr, ptr %6, align 8
  %37 = load i64, ptr %7, align 8
  %38 = getelementptr inbounds ptr, ptr %36, i64 %37
  %39 = load ptr, ptr %38, align 8
  %40 = getelementptr inbounds %struct.lxb_dom_node, ptr %39, i32 0, i32 1
  %41 = load i64, ptr %40, align 8
  %42 = load ptr, ptr %5, align 8
  %43 = getelementptr inbounds %struct.lxb_html_token_t, ptr %42, i32 0, i32 10
  %44 = load i64, ptr %43, align 8
  %45 = icmp ne i64 %41, %44
  br i1 %45, label %46, label %49

46:                                               ; preds = %35
  %47 = load ptr, ptr %4, align 8
  %48 = load ptr, ptr %5, align 8
  call void @lxb_html_tree_parse_error(ptr noundef %47, ptr noundef %48, i32 noundef 22)
  br label %49

49:                                               ; preds = %46, %35, %21
  br label %50

50:                                               ; preds = %81, %49
  %51 = load i64, ptr %7, align 8
  %52 = icmp ne i64 %51, 0
  br i1 %52, label %53, label %82

53:                                               ; preds = %50
  %54 = load ptr, ptr %6, align 8
  %55 = load i64, ptr %7, align 8
  %56 = getelementptr inbounds ptr, ptr %54, i64 %55
  %57 = load ptr, ptr %56, align 8
  %58 = getelementptr inbounds %struct.lxb_dom_node, ptr %57, i32 0, i32 1
  %59 = load i64, ptr %58, align 8
  %60 = load ptr, ptr %5, align 8
  %61 = getelementptr inbounds %struct.lxb_html_token_t, ptr %60, i32 0, i32 10
  %62 = load i64, ptr %61, align 8
  %63 = icmp eq i64 %59, %62
  br i1 %63, label %64, label %70

64:                                               ; preds = %53
  %65 = load ptr, ptr %4, align 8
  %66 = load ptr, ptr %6, align 8
  %67 = load i64, ptr %7, align 8
  %68 = getelementptr inbounds ptr, ptr %66, i64 %67
  %69 = load ptr, ptr %68, align 8
  call void @lxb_html_tree_open_elements_pop_until_node(ptr noundef %65, ptr noundef %69, i1 noundef zeroext true)
  store i1 true, ptr %3, align 1
  br label %89

70:                                               ; preds = %53
  %71 = load i64, ptr %7, align 8
  %72 = add i64 %71, -1
  store i64 %72, ptr %7, align 8
  %73 = load ptr, ptr %6, align 8
  %74 = load i64, ptr %7, align 8
  %75 = getelementptr inbounds ptr, ptr %73, i64 %74
  %76 = load ptr, ptr %75, align 8
  %77 = getelementptr inbounds %struct.lxb_dom_node, ptr %76, i32 0, i32 3
  %78 = load i64, ptr %77, align 8
  %79 = icmp eq i64 %78, 2
  br i1 %79, label %80, label %81

80:                                               ; preds = %70
  br label %82

81:                                               ; preds = %70
  br label %50

82:                                               ; preds = %80, %50
  %83 = load ptr, ptr %4, align 8
  %84 = getelementptr inbounds %struct.lxb_html_tree, ptr %83, i32 0, i32 15
  %85 = load ptr, ptr %84, align 8
  %86 = load ptr, ptr %4, align 8
  %87 = load ptr, ptr %5, align 8
  %88 = call zeroext i1 %85(ptr noundef %86, ptr noundef %87)
  store i1 %88, ptr %3, align 1
  br label %89

89:                                               ; preds = %82, %64, %14
  %90 = load i1, ptr %3, align 1
  ret i1 %90
}

; Function Attrs: nounwind uwtable
define internal ptr @lxb_html_tree_current_node(ptr noundef %0) #0 {
  %2 = alloca ptr, align 8
  %3 = alloca ptr, align 8
  store ptr %0, ptr %3, align 8
  %4 = load ptr, ptr %3, align 8
  %5 = getelementptr inbounds %struct.lxb_html_tree, ptr %4, i32 0, i32 4
  %6 = load ptr, ptr %5, align 8
  %7 = getelementptr inbounds %struct.lexbor_array_t, ptr %6, i32 0, i32 2
  %8 = load i64, ptr %7, align 8
  %9 = icmp eq i64 %8, 0
  br i1 %9, label %10, label %11

10:                                               ; preds = %1
  store ptr null, ptr %2, align 8
  br label %25

11:                                               ; preds = %1
  %12 = load ptr, ptr %3, align 8
  %13 = getelementptr inbounds %struct.lxb_html_tree, ptr %12, i32 0, i32 4
  %14 = load ptr, ptr %13, align 8
  %15 = getelementptr inbounds %struct.lexbor_array_t, ptr %14, i32 0, i32 0
  %16 = load ptr, ptr %15, align 8
  %17 = load ptr, ptr %3, align 8
  %18 = getelementptr inbounds %struct.lxb_html_tree, ptr %17, i32 0, i32 4
  %19 = load ptr, ptr %18, align 8
  %20 = getelementptr inbounds %struct.lexbor_array_t, ptr %19, i32 0, i32 2
  %21 = load i64, ptr %20, align 8
  %22 = sub i64 %21, 1
  %23 = getelementptr inbounds ptr, ptr %16, i64 %22
  %24 = load ptr, ptr %23, align 8
  store ptr %24, ptr %2, align 8
  br label %25

25:                                               ; preds = %11, %10
  %26 = load ptr, ptr %2, align 8
  ret ptr %26
}

; Function Attrs: nounwind uwtable
define internal zeroext i1 @lxb_html_tree_insertion_mode_foreign_content_script_closed(ptr noundef %0, ptr noundef %1) #0 {
  %3 = alloca i1, align 1
  %4 = alloca ptr, align 8
  %5 = alloca ptr, align 8
  %6 = alloca ptr, align 8
  store ptr %0, ptr %4, align 8
  store ptr %1, ptr %5, align 8
  %7 = load ptr, ptr %4, align 8
  %8 = call ptr @lxb_html_tree_current_node(ptr noundef %7)
  store ptr %8, ptr %6, align 8
  %9 = load ptr, ptr %6, align 8
  %10 = getelementptr inbounds %struct.lxb_dom_node, ptr %9, i32 0, i32 1
  %11 = load i64, ptr %10, align 8
  %12 = icmp ne i64 %11, 161
  br i1 %12, label %18, label %13

13:                                               ; preds = %2
  %14 = load ptr, ptr %6, align 8
  %15 = getelementptr inbounds %struct.lxb_dom_node, ptr %14, i32 0, i32 3
  %16 = load i64, ptr %15, align 8
  %17 = icmp ne i64 %16, 4
  br i1 %17, label %18, label %22

18:                                               ; preds = %13, %2
  %19 = load ptr, ptr %4, align 8
  %20 = load ptr, ptr %5, align 8
  %21 = call zeroext i1 @lxb_html_tree_insertion_mode_foreign_content_anything_else_closed(ptr noundef %19, ptr noundef %20)
  store i1 %21, ptr %3, align 1
  br label %25

22:                                               ; preds = %13
  %23 = load ptr, ptr %4, align 8
  %24 = call ptr @lxb_html_tree_open_elements_pop(ptr noundef %23)
  store i1 true, ptr %3, align 1
  br label %25

25:                                               ; preds = %22, %18
  %26 = load i1, ptr %3, align 1
  ret i1 %26
}