; Function Attrs: nounwind uwtable
define internal fastcc zeroext i1 @lxb_html_tree_insertion_mode_foreign_content_script_closed(ptr noundef %0, ptr noundef %1) unnamed_addr #0 {
  %3 = getelementptr i8, ptr %0, i64 32
  %.val = load ptr, ptr %3, align 8
  %4 = getelementptr inbounds i8, ptr %.val, i64 16
  %5 = load i64, ptr %4, align 8
  %6 = icmp eq i64 %5, 0
  br i1 %6, label %lxb_html_tree_current_node.exit, label %7

7:                                                ; preds = %2
  %8 = load ptr, ptr %.val, align 8
  %9 = getelementptr ptr, ptr %8, i64 %5
  %10 = getelementptr i8, ptr %9, i64 -8
  %11 = load ptr, ptr %10, align 8
  br label %lxb_html_tree_current_node.exit

lxb_html_tree_current_node.exit:                  ; preds = %2, %7
  %.0.i = phi ptr [ %11, %7 ], [ null, %2 ]
  %12 = getelementptr inbounds i8, ptr %.0.i, i64 8
  %13 = load i64, ptr %12, align 8
  %.not = icmp eq i64 %13, 161
  br i1 %.not, label %14, label %17

14:                                               ; preds = %lxb_html_tree_current_node.exit
  %15 = getelementptr inbounds i8, ptr %.0.i, i64 24
  %16 = load i64, ptr %15, align 8
  %.not7 = icmp eq i64 %16, 4
  br i1 %.not7, label %52, label %17

17:                                               ; preds = %14, %lxb_html_tree_current_node.exit
  br i1 %6, label %18, label %22

18:                                               ; preds = %17
  %19 = getelementptr inbounds i8, ptr %0, i64 88
  %20 = load ptr, ptr %19, align 8
  %21 = tail call zeroext i1 %20(ptr noundef nonnull %0, ptr noundef %1) #4
  br label %lxb_html_tree_insertion_mode_foreign_content_anything_else_closed.exit

22:                                               ; preds = %17
  %23 = load ptr, ptr %.val, align 8
  %24 = add i64 %5, -1
  %cond.i = icmp eq i64 %24, 0
  br i1 %cond.i, label %.loopexit.i, label %25

25:                                               ; preds = %22
  %26 = getelementptr inbounds ptr, ptr %23, i64 %24
  %27 = load ptr, ptr %26, align 8
  %28 = getelementptr inbounds i8, ptr %27, i64 8
  %29 = load i64, ptr %28, align 8
  %30 = getelementptr inbounds i8, ptr %1, i64 80
  %31 = load i64, ptr %30, align 8
  %.not31.i = icmp eq i64 %29, %31
  br i1 %.not31.i, label %33, label %32

32:                                               ; preds = %25
  tail call void @lxb_html_tree_parse_error(ptr noundef nonnull %0, ptr noundef nonnull %1, i32 noundef 22) #4
  %.pre.i = load i64, ptr %30, align 8
  %.pre34.pre.i = load ptr, ptr %26, align 8
  br label %33

33:                                               ; preds = %32, %25
  %.pre34.i = phi ptr [ %.pre34.pre.i, %32 ], [ %27, %25 ]
  %34 = phi i64 [ %.pre.i, %32 ], [ %29, %25 ]
  br label %35

35:                                               ; preds = %41, %33
  %36 = phi ptr [ %.pre34.i, %33 ], [ %44, %41 ]
  %.0.i9 = phi i64 [ %24, %33 ], [ %42, %41 ]
  %37 = getelementptr inbounds i8, ptr %36, i64 8
  %38 = load i64, ptr %37, align 8
  %39 = icmp eq i64 %38, %34
  br i1 %39, label %40, label %41

40:                                               ; preds = %35
  tail call void @lxb_html_tree_open_elements_pop_until_node(ptr noundef %0, ptr noundef nonnull %36, i1 noundef zeroext true) #4
  br label %lxb_html_tree_insertion_mode_foreign_content_anything_else_closed.exit

41:                                               ; preds = %35
  %42 = add i64 %.0.i9, -1
  %43 = getelementptr inbounds ptr, ptr %23, i64 %42
  %44 = load ptr, ptr %43, align 8
  %45 = getelementptr inbounds i8, ptr %44, i64 24
  %46 = load i64, ptr %45, align 8
  %47 = icmp ne i64 %46, 2
  %48 = icmp ne i64 %42, 0
  %or.cond.i = and i1 %48, %47
  br i1 %or.cond.i, label %35, label %.loopexit.i

.loopexit.i:                                      ; preds = %41, %22
  %49 = getelementptr inbounds i8, ptr %0, i64 88
  %50 = load ptr, ptr %49, align 8
  %51 = tail call zeroext i1 %50(ptr noundef %0, ptr noundef %1) #4
  br label %lxb_html_tree_insertion_mode_foreign_content_anything_else_closed.exit

52:                                               ; preds = %14
  %53 = tail call ptr @lexbor_array_pop(ptr noundef nonnull %.val) #4
  br label %lxb_html_tree_insertion_mode_foreign_content_anything_else_closed.exit

lxb_html_tree_insertion_mode_foreign_content_anything_else_closed.exit: ; preds = %.loopexit.i, %40, %18, %52
  %.0 = phi i1 [ true, %52 ], [ %21, %18 ], [ true, %40 ], [ %51, %.loopexit.i ]
  ret i1 %.0
}